; Function Attrs: mustprogress nofree norecurse nosync nounwind willreturn memory(read, inaccessiblemem: none) uwtable
define noundef zeroext i1 @_ZNK7rocksdb17BaseDeltaIterator10DeltaValidEv(ptr noundef nonnull readonly align 8 captures(none) dereferenceable(200) %0) local_unnamed_addr #7 align 2 {
  %2 = getelementptr inbounds nuw i8, ptr %0, i64 80
  %3 = load ptr, ptr %2, align 8, !tbaa !100
  %4 = getelementptr inbounds nuw i8, ptr %3, i64 64
  %5 = load i8, ptr %4, align 8, !tbaa !120, !range !91, !noundef !92
  %6 = trunc nuw i8 %5 to i1
  br i1 %6, label %_ZNK7rocksdb16WBWIIteratorImpl5ValidEv.exit, label %7

7:                                                ; preds = %1
  %8 = getelementptr inbounds nuw i8, ptr %3, i64 24
  %9 = load ptr, ptr %8, align 8, !tbaa !129
  %.not5.i.i = icmp eq ptr %9, null
  br i1 %.not5.i.i, label %_ZNK7rocksdb16WBWIIteratorImpl5ValidEv.exit, label %10

10:                                               ; preds = %7
  %11 = load ptr, ptr %9, align 8, !tbaa !130
  %.not.i.i = icmp eq ptr %11, null
  br i1 %.not.i.i, label %_ZNK7rocksdb16WBWIIteratorImpl5ValidEv.exit, label %12

12:                                               ; preds = %10
  %13 = getelementptr inbounds nuw i8, ptr %11, i64 8
  %14 = load i32, ptr %13, align 8, !tbaa !132
  %15 = getelementptr inbounds nuw i8, ptr %3, i64 8
  %16 = load i32, ptr %15, align 8, !tbaa !134
  %17 = icmp eq i32 %14, %16
  br label %_ZNK7rocksdb16WBWIIteratorImpl5ValidEv.exit

_ZNK7rocksdb16WBWIIteratorImpl5ValidEv.exit:      ; preds = %1, %7, %10, %12
  %18 = phi i1 [ false, %1 ], [ false, %7 ], [ false, %10 ], [ %17, %12 ]
  ret i1 %18
}